; Function Attrs: mustprogress uwtable
define noundef double @_ZNK8QuantLib21FaceValueAccrualClaim6amountERKNS_4DateEdd(ptr nocapture noundef nonnull readonly align 8 dereferenceable(128) %this, ptr nocapture noundef nonnull readonly align 8 dereferenceable(8) %d, double noundef %notional, double noundef %recoveryRate) unnamed_addr #8 align 2 {
entry:
  %referenceSecurity_ = getelementptr inbounds nuw i8, ptr %this, i64 112
  %0 = load ptr, ptr %referenceSecurity_, align 8, !tbaa !30
  %cmp.not.i = icmp eq ptr %0, null
  br i1 %cmp.not.i, label %cond.false.i, label %_ZNK5boost10shared_ptrIN8QuantLib4BondEEptEv.exit, !prof !39

cond.false.i:                                     ; preds = %entry
  tail call void @_ZN5boost16assertion_failedEPKcS1_S1_l(ptr noundef nonnull @.str, ptr noundef nonnull @__PRETTY_FUNCTION__._ZNK5boost10shared_ptrIN8QuantLib4BondEEptEv, ptr noundef nonnull @.str.2, i64 noundef 784)
  %.pre.i = load ptr, ptr %referenceSecurity_, align 8, !tbaa !30
  br label %_ZNK5boost10shared_ptrIN8QuantLib4BondEEptEv.exit

_ZNK5boost10shared_ptrIN8QuantLib4BondEEptEv.exit: ; preds = %entry, %cond.false.i
  %1 = phi ptr [ %0, %entry ], [ %.pre.i, %cond.false.i ]
  %agg.tmp.sroa.0.0.copyload = load i64, ptr %d, align 8, !tbaa !40
  %vtable = load ptr, ptr %1, align 8, !tbaa !28
  %vfn = getelementptr inbounds i8, ptr %vtable, i64 88
  %2 = load ptr, ptr %vfn, align 8
  %call2 = tail call noundef double %2(ptr noundef nonnull align 8 dereferenceable(248) %1, i64 %agg.tmp.sroa.0.0.copyload)
  %3 = load ptr, ptr %referenceSecurity_, align 8, !tbaa !30
  %cmp.not.i2 = icmp eq ptr %3, null
  br i1 %cmp.not.i2, label %cond.false.i3, label %_ZNK5boost10shared_ptrIN8QuantLib4BondEEptEv.exit5, !prof !39

cond.false.i3:                                    ; preds = %_ZNK5boost10shared_ptrIN8QuantLib4BondEEptEv.exit
  tail call void @_ZN5boost16assertion_failedEPKcS1_S1_l(ptr noundef nonnull @.str, ptr noundef nonnull @__PRETTY_FUNCTION__._ZNK5boost10shared_ptrIN8QuantLib4BondEEptEv, ptr noundef nonnull @.str.2, i64 noundef 784)
  %.pre.i4 = load ptr, ptr %referenceSecurity_, align 8, !tbaa !30
  br label %_ZNK5boost10shared_ptrIN8QuantLib4BondEEptEv.exit5

_ZNK5boost10shared_ptrIN8QuantLib4BondEEptEv.exit5: ; preds = %_ZNK5boost10shared_ptrIN8QuantLib4BondEEptEv.exit, %cond.false.i3
  %4 = phi ptr [ %3, %_ZNK5boost10shared_ptrIN8QuantLib4BondEEptEv.exit ], [ %.pre.i4, %cond.false.i3 ]
  %agg.tmp5.sroa.0.0.copyload = load i64, ptr %d, align 8, !tbaa !40
  %vtable7 = load ptr, ptr %4, align 8, !tbaa !28
  %vfn8 = getelementptr inbounds i8, ptr %vtable7, i64 80
  %5 = load ptr, ptr %vfn8, align 8
  %call9 = tail call noundef double %5(ptr noundef nonnull align 8 dereferenceable(248) %4, i64 %agg.tmp5.sroa.0.0.copyload)
  %div = fdiv double %call2, %call9
  %sub = fsub double 1.000000e+00, %recoveryRate
  %sub10 = fsub double %sub, %div
  %mul = fmul double %notional, %sub10
  ret double %mul
}